target datalayout = "e-m:e-p270:32:32-p271:32:32-p272:64:64-i64:64-i128:128-f80:128-n8:16:32:64-S128"
target triple = "x86_64-pc-linux-gnu"

; Function Attrs: nounwind uwtable
define internal void @expand_flags(ptr noundef %0) #0 {
  %2 = alloca ptr, align 8
  %3 = alloca i32, align 4
  %4 = alloca ptr, align 8
  store ptr %0, ptr %2, align 8, !tbaa !8
  call void @llvm.lifetime.start.p0(i64 4, ptr %3) #9
  call void @llvm.lifetime.start.p0(i64 8, ptr %4) #9
  store i32 0, ptr %3, align 4, !tbaa !4
  br label %5

5:                                                ; preds = %38, %1
  %6 = load ptr, ptr %2, align 8, !tbaa !8
  %7 = load i32, ptr %3, align 4, !tbaa !4
  %8 = sext i32 %7 to i64
  %9 = getelementptr inbounds ptr, ptr %6, i64 %8
  %10 = load ptr, ptr %9, align 8, !tbaa !11
  %11 = icmp ne ptr %10, null
  br i1 %11, label %12, label %41

12:                                               ; preds = %5
  %13 = load ptr, ptr %2, align 8, !tbaa !8
  %14 = load i32, ptr %3, align 4, !tbaa !4
  %15 = sext i32 %14 to i64
  %16 = getelementptr inbounds ptr, ptr %13, i64 %15
  %17 = load ptr, ptr %16, align 8, !tbaa !11
  %18 = call ptr @pmix_pinstall_dirs_expand(ptr noundef %17)
  store ptr %18, ptr %4, align 8, !tbaa !11
  %19 = load ptr, ptr %4, align 8, !tbaa !11
  %20 = load ptr, ptr %2, align 8, !tbaa !8
  %21 = load i32, ptr %3, align 4, !tbaa !4
  %22 = sext i32 %21 to i64
  %23 = getelementptr inbounds ptr, ptr %20, i64 %22
  %24 = load ptr, ptr %23, align 8, !tbaa !11
  %25 = icmp ne ptr %19, %24
  br i1 %25, label %26, label %37

26:                                               ; preds = %12
  %27 = load ptr, ptr %2, align 8, !tbaa !8
  %28 = load i32, ptr %3, align 4, !tbaa !4
  %29 = sext i32 %28 to i64
  %30 = getelementptr inbounds ptr, ptr %27, i64 %29
  %31 = load ptr, ptr %30, align 8, !tbaa !11
  call void @free(ptr noundef %31) #9
  %32 = load ptr, ptr %4, align 8, !tbaa !11
  %33 = load ptr, ptr %2, align 8, !tbaa !8
  %34 = load i32, ptr %3, align 4, !tbaa !4
  %35 = sext i32 %34 to i64
  %36 = getelementptr inbounds ptr, ptr %33, i64 %35
  store ptr %32, ptr %36, align 8, !tbaa !11
  br label %37

37:                                               ; preds = %26, %12
  br label %38

38:                                               ; preds = %37
  %39 = load i32, ptr %3, align 4, !tbaa !4
  %40 = add nsw i32 %39, 1
  store i32 %40, ptr %3, align 4, !tbaa !4
  br label %5, !llvm.loop !54

41:                                               ; preds = %5
  call void @llvm.lifetime.end.p0(i64 8, ptr %4) #9
  call void @llvm.lifetime.end.p0(i64 4, ptr %3) #9
  ret void
}