; Function Attrs: nounwind uwtable
define internal fastcc void @expand_flags(ptr noundef captures(none) %0) unnamed_addr #0 {
  %2 = load ptr, ptr %0, align 8, !tbaa !13
  %.not16 = icmp eq ptr %2, null
  br i1 %.not16, label %._crit_edge, label %.lr.ph

.lr.ph:                                           ; preds = %1, %8
  %indvars.iv = phi i64 [ %indvars.iv.next, %8 ], [ 0, %1 ]
  %3 = phi ptr [ %10, %8 ], [ %2, %1 ]
  %4 = getelementptr inbounds nuw ptr, ptr %0, i64 %indvars.iv
  %5 = tail call ptr @pmix_pinstall_dirs_expand(ptr noundef nonnull %3) #16
  %6 = load ptr, ptr %4, align 8, !tbaa !13
  %.not15 = icmp eq ptr %5, %6
  br i1 %.not15, label %8, label %7

7:                                                ; preds = %.lr.ph
  tail call void @free(ptr noundef %6) #16
  store ptr %5, ptr %4, align 8, !tbaa !13
  br label %8

8:                                                ; preds = %.lr.ph, %7
  %indvars.iv.next = add nuw nsw i64 %indvars.iv, 1
  %9 = getelementptr inbounds nuw ptr, ptr %0, i64 %indvars.iv.next
  %10 = load ptr, ptr %9, align 8, !tbaa !13
  %.not = icmp eq ptr %10, null
  br i1 %.not, label %._crit_edge, label %.lr.ph, !llvm.loop !49

._crit_edge:                                      ; preds = %8, %1
  ret void
}